target datalayout = "e-m:e-p270:32:32-p271:32:32-p272:64:64-i64:64-i128:128-f80:128-n8:16:32:64-S128"
target triple = "x86_64-pc-linux-gnu"

%struct.TLSX = type { i32, ptr, i32, i8, ptr }
%struct.SNI = type { i8, %union.anon, ptr, i8, i8 }
%union.anon = type { ptr }

; Function Attrs: nounwind uwtable
define internal ptr @TLSX_SNI_Find(ptr noundef %0, i8 noundef zeroext %1) #0 {
  %3 = alloca ptr, align 8
  %4 = alloca i8, align 1
  %5 = alloca ptr, align 8
  store ptr %0, ptr %3, align 8, !tbaa !111
  store i8 %1, ptr %4, align 1, !tbaa !55
  call void @llvm.lifetime.start.p0(i64 8, ptr %5) #8
  %6 = load ptr, ptr %3, align 8, !tbaa !111
  store ptr %6, ptr %5, align 8, !tbaa !111
  br label %7

7:                                                ; preds = %20, %2
  %8 = load ptr, ptr %5, align 8, !tbaa !111
  %9 = icmp ne ptr %8, null
  br i1 %9, label %10, label %18

10:                                               ; preds = %7
  %11 = load ptr, ptr %5, align 8, !tbaa !111
  %12 = getelementptr inbounds nuw %struct.SNI, ptr %11, i32 0, i32 0
  %13 = load i8, ptr %12, align 8, !tbaa !115
  %14 = zext i8 %13 to i32
  %15 = load i8, ptr %4, align 1, !tbaa !55
  %16 = zext i8 %15 to i32
  %17 = icmp ne i32 %14, %16
  br label %18

18:                                               ; preds = %10, %7
  %19 = phi i1 [ false, %7 ], [ %17, %10 ]
  br i1 %19, label %20, label %24

20:                                               ; preds = %18
  %21 = load ptr, ptr %5, align 8, !tbaa !111
  %22 = getelementptr inbounds nuw %struct.SNI, ptr %21, i32 0, i32 2
  %23 = load ptr, ptr %22, align 8, !tbaa !116
  store ptr %23, ptr %5, align 8, !tbaa !111
  br label %7, !llvm.loop !117

24:                                               ; preds = %18
  %25 = load ptr, ptr %5, align 8, !tbaa !111
  call void @llvm.lifetime.end.p0(i64 8, ptr %5) #8
  ret ptr %25
}

; Function Attrs: nounwind uwtable
define ptr @TLSX_Find(ptr noundef %0, i32 noundef %1) #0 {
  %3 = alloca ptr, align 8
  %4 = alloca i32, align 4
  %5 = alloca ptr, align 8
  store ptr %0, ptr %3, align 8, !tbaa !77
  store i32 %1, ptr %4, align 4, !tbaa !12
  call void @llvm.lifetime.start.p0(i64 8, ptr %5) #8
  %6 = load ptr, ptr %3, align 8, !tbaa !77
  store ptr %6, ptr %5, align 8, !tbaa !77
  br label %7

7:                                                ; preds = %18, %2
  %8 = load ptr, ptr %5, align 8, !tbaa !77
  %9 = icmp ne ptr %8, null
  br i1 %9, label %10, label %16

10:                                               ; preds = %7
  %11 = load ptr, ptr %5, align 8, !tbaa !77
  %12 = getelementptr inbounds nuw %struct.TLSX, ptr %11, i32 0, i32 0
  %13 = load i32, ptr %12, align 8, !tbaa !78
  %14 = load i32, ptr %4, align 4, !tbaa !12
  %15 = icmp ne i32 %13, %14
  br label %16

16:                                               ; preds = %10, %7
  %17 = phi i1 [ false, %7 ], [ %15, %10 ]
  br i1 %17, label %18, label %22

18:                                               ; preds = %16
  %19 = load ptr, ptr %5, align 8, !tbaa !77
  %20 = getelementptr inbounds nuw %struct.TLSX, ptr %19, i32 0, i32 4
  %21 = load ptr, ptr %20, align 8, !tbaa !80
  store ptr %21, ptr %5, align 8, !tbaa !77
  br label %7, !llvm.loop !110

22:                                               ; preds = %16
  %23 = load ptr, ptr %5, align 8, !tbaa !77
  call void @llvm.lifetime.end.p0(i64 8, ptr %5) #8
  ret ptr %23
}

; Function Attrs: nounwind uwtable
define internal void @TLSX_SNI_SetStatus(ptr noundef %0, i8 noundef zeroext %1, i8 noundef zeroext %2) #0 {
  %4 = alloca ptr, align 8
  %5 = alloca i8, align 1
  %6 = alloca i8, align 1
  %7 = alloca ptr, align 8
  %8 = alloca ptr, align 8
  store ptr %0, ptr %4, align 8, !tbaa !77
  store i8 %1, ptr %5, align 1, !tbaa !55
  store i8 %2, ptr %6, align 1, !tbaa !55
  call void @llvm.lifetime.start.p0(i64 8, ptr %7) #8
  %9 = load ptr, ptr %4, align 8, !tbaa !77
  %10 = call ptr @TLSX_Find(ptr noundef %9, i32 noundef 0)
  store ptr %10, ptr %7, align 8, !tbaa !77
  call void @llvm.lifetime.start.p0(i64 8, ptr %8) #8
  %11 = load ptr, ptr %7, align 8, !tbaa !77
  %12 = icmp ne ptr %11, null
  br i1 %12, label %13, label %17

13:                                               ; preds = %3
  %14 = load ptr, ptr %7, align 8, !tbaa !77
  %15 = getelementptr inbounds nuw %struct.TLSX, ptr %14, i32 0, i32 1
  %16 = load ptr, ptr %15, align 8, !tbaa !103
  br label %18

17:                                               ; preds = %3
  br label %18

18:                                               ; preds = %17, %13
  %19 = phi ptr [ %16, %13 ], [ null, %17 ]
  %20 = load i8, ptr %5, align 1, !tbaa !55
  %21 = call ptr @TLSX_SNI_Find(ptr noundef %19, i8 noundef zeroext %20)
  store ptr %21, ptr %8, align 8, !tbaa !111
  %22 = load ptr, ptr %8, align 8, !tbaa !111
  %23 = icmp ne ptr %22, null
  br i1 %23, label %24, label %28

24:                                               ; preds = %18
  %25 = load i8, ptr %6, align 1, !tbaa !55
  %26 = load ptr, ptr %8, align 8, !tbaa !111
  %27 = getelementptr inbounds nuw %struct.SNI, ptr %26, i32 0, i32 3
  store i8 %25, ptr %27, align 8, !tbaa !113
  br label %28

28:                                               ; preds = %24, %18
  call void @llvm.lifetime.end.p0(i64 8, ptr %8) #8
  call void @llvm.lifetime.end.p0(i64 8, ptr %7) #8
  ret void
}