; Function Attrs: nofree norecurse nosync nounwind memory(readwrite, inaccessiblemem: none) uwtable
define internal fastcc void @TLSX_SNI_SetStatus(ptr noundef readonly captures(address_is_null) %0, i8 noundef zeroext %1, i8 noundef zeroext range(i8 1, 4) %2) unnamed_addr #9 {
  %.not6.i = icmp eq ptr %0, null
  br i1 %.not6.i, label %TLSX_SNI_Find.exit.thread, label %.lr.ph.i

.lr.ph.i:                                         ; preds = %3, %5
  %.07.i = phi ptr [ %7, %5 ], [ %0, %3 ]
  %4 = load i32, ptr %.07.i, align 8, !tbaa !60
  %.not5.i = icmp eq i32 %4, 0
  br i1 %.not5.i, label %8, label %5

5:                                                ; preds = %.lr.ph.i
  %6 = getelementptr inbounds nuw i8, ptr %.07.i, i64 24
  %7 = load ptr, ptr %6, align 8, !tbaa !63
  %.not.i = icmp eq ptr %7, null
  br i1 %.not.i, label %TLSX_SNI_Find.exit.thread, label %.lr.ph.i, !llvm.loop !101

8:                                                ; preds = %.lr.ph.i
  %9 = getelementptr inbounds nuw i8, ptr %.07.i, i64 8
  %10 = load ptr, ptr %9, align 8, !tbaa !82
  %.not6.i8 = icmp eq ptr %10, null
  br i1 %.not6.i8, label %TLSX_SNI_Find.exit.thread, label %.lr.ph.i9

.lr.ph.i9:                                        ; preds = %8, %12
  %.07.i10 = phi ptr [ %14, %12 ], [ %10, %8 ]
  %11 = load i8, ptr %.07.i10, align 8, !tbaa !88
  %.not5.i11 = icmp eq i8 %11, %1
  br i1 %.not5.i11, label %TLSX_SNI_Find.exit, label %12

12:                                               ; preds = %.lr.ph.i9
  %13 = getelementptr inbounds nuw i8, ptr %.07.i10, i64 16
  %14 = load ptr, ptr %13, align 8, !tbaa !85
  %.not.i12 = icmp eq ptr %14, null
  br i1 %.not.i12, label %TLSX_SNI_Find.exit.thread, label %.lr.ph.i9, !llvm.loop !104

TLSX_SNI_Find.exit:                               ; preds = %.lr.ph.i9
  %15 = getelementptr inbounds nuw i8, ptr %.07.i10, i64 24
  store i8 %2, ptr %15, align 8, !tbaa !105
  br label %TLSX_SNI_Find.exit.thread

TLSX_SNI_Find.exit.thread:                        ; preds = %5, %12, %3, %8, %TLSX_SNI_Find.exit
  ret void
}